target datalayout = "e-m:e-p270:32:32-p271:32:32-p272:64:64-i64:64-i128:128-f80:128-n8:16:32:64-S128"
target triple = "x86_64-pc-linux-gnu"

@.str = private unnamed_addr constant [33 x i8] c"../openssl/crypto/x509/v3_skid.c\00", align 1
@__func__.ossl_x509_pubkey_hash = private unnamed_addr constant [22 x i8] c"ossl_x509_pubkey_hash\00", align 1
@.str.1 = private unnamed_addr constant [5 x i8] c"SHA1\00", align 1

; Function Attrs: nounwind uwtable
define ptr @ossl_x509_pubkey_hash(ptr noundef %0) #1 {
  %2 = alloca ptr, align 8
  %3 = alloca ptr, align 8
  %4 = alloca ptr, align 8
  %5 = alloca ptr, align 8
  %6 = alloca i32, align 4
  %7 = alloca [64 x i8], align 16
  %8 = alloca i32, align 4
  %9 = alloca ptr, align 8
  %10 = alloca ptr, align 8
  %11 = alloca ptr, align 8
  %12 = alloca i32, align 4
  store ptr %0, ptr %3, align 8, !tbaa !57
  call void @llvm.lifetime.start.p0(i64 8, ptr %4) #5
  call void @llvm.lifetime.start.p0(i64 8, ptr %5) #5
  call void @llvm.lifetime.start.p0(i64 4, ptr %6) #5
  call void @llvm.lifetime.start.p0(i64 64, ptr %7) #5
  call void @llvm.lifetime.start.p0(i64 4, ptr %8) #5
  call void @llvm.lifetime.start.p0(i64 8, ptr %9) #5
  call void @llvm.lifetime.start.p0(i64 8, ptr %10) #5
  call void @llvm.lifetime.start.p0(i64 8, ptr %11) #5
  %13 = load ptr, ptr %3, align 8, !tbaa !57
  %14 = icmp eq ptr %13, null
  br i1 %14, label %15, label %16

15:                                               ; preds = %1
  call void @ERR_new()
  call void @ERR_set_debug(ptr noundef @.str, i32 noundef 67, ptr noundef @__func__.ossl_x509_pubkey_hash)
  call void (i32, i32, ptr, ...) @ERR_set_error(i32 noundef 34, i32 noundef 114, ptr noundef null)
  store ptr null, ptr %2, align 8
  store i32 1, ptr %12, align 4
  br label %54

16:                                               ; preds = %1
  %17 = load ptr, ptr %3, align 8, !tbaa !57
  %18 = call i32 @ossl_x509_PUBKEY_get0_libctx(ptr noundef %10, ptr noundef %9, ptr noundef %17)
  %19 = icmp ne i32 %18, 0
  br i1 %19, label %21, label %20

20:                                               ; preds = %16
  store ptr null, ptr %2, align 8
  store i32 1, ptr %12, align 4
  br label %54

21:                                               ; preds = %16
  %22 = load ptr, ptr %10, align 8, !tbaa !58
  %23 = load ptr, ptr %9, align 8, !tbaa !18
  %24 = call ptr @EVP_MD_fetch(ptr noundef %22, ptr noundef @.str.1, ptr noundef %23)
  store ptr %24, ptr %11, align 8, !tbaa !59
  %25 = icmp eq ptr %24, null
  br i1 %25, label %26, label %27

26:                                               ; preds = %21
  store ptr null, ptr %2, align 8
  store i32 1, ptr %12, align 4
  br label %54

27:                                               ; preds = %21
  %28 = call ptr @ASN1_OCTET_STRING_new()
  store ptr %28, ptr %4, align 8, !tbaa !8
  %29 = icmp eq ptr %28, null
  br i1 %29, label %30, label %32

30:                                               ; preds = %27
  %31 = load ptr, ptr %11, align 8, !tbaa !59
  call void @EVP_MD_free(ptr noundef %31)
  store ptr null, ptr %2, align 8
  store i32 1, ptr %12, align 4
  br label %54

32:                                               ; preds = %27
  %33 = load ptr, ptr %3, align 8, !tbaa !57
  %34 = call i32 @X509_PUBKEY_get0_param(ptr noundef null, ptr noundef %5, ptr noundef %6, ptr noundef null, ptr noundef %33)
  %35 = load ptr, ptr %5, align 8, !tbaa !18
  %36 = load i32, ptr %6, align 4, !tbaa !61
  %37 = sext i32 %36 to i64
  %38 = getelementptr inbounds [64 x i8], ptr %7, i64 0, i64 0
  %39 = load ptr, ptr %11, align 8, !tbaa !59
  %40 = call i32 @EVP_Digest(ptr noundef %35, i64 noundef %37, ptr noundef %38, ptr noundef %8, ptr noundef %39, ptr noundef null)
  %41 = icmp ne i32 %40, 0
  br i1 %41, label %42, label %51

42:                                               ; preds = %32
  %43 = load ptr, ptr %4, align 8, !tbaa !8
  %44 = getelementptr inbounds [64 x i8], ptr %7, i64 0, i64 0
  %45 = load i32, ptr %8, align 4, !tbaa !61
  %46 = call i32 @ASN1_OCTET_STRING_set(ptr noundef %43, ptr noundef %44, i32 noundef %45)
  %47 = icmp ne i32 %46, 0
  br i1 %47, label %48, label %51

48:                                               ; preds = %42
  %49 = load ptr, ptr %11, align 8, !tbaa !59
  call void @EVP_MD_free(ptr noundef %49)
  %50 = load ptr, ptr %4, align 8, !tbaa !8
  store ptr %50, ptr %2, align 8
  store i32 1, ptr %12, align 4
  br label %54

51:                                               ; preds = %42, %32
  %52 = load ptr, ptr %11, align 8, !tbaa !59
  call void @EVP_MD_free(ptr noundef %52)
  %53 = load ptr, ptr %4, align 8, !tbaa !8
  call void @ASN1_OCTET_STRING_free(ptr noundef %53)
  store ptr null, ptr %2, align 8
  store i32 1, ptr %12, align 4
  br label %54

54:                                               ; preds = %51, %48, %30, %26, %20, %15
  call void @llvm.lifetime.end.p0(i64 8, ptr %11) #5
  call void @llvm.lifetime.end.p0(i64 8, ptr %10) #5
  call void @llvm.lifetime.end.p0(i64 8, ptr %9) #5
  call void @llvm.lifetime.end.p0(i64 4, ptr %8) #5
  call void @llvm.lifetime.end.p0(i64 64, ptr %7) #5
  call void @llvm.lifetime.end.p0(i64 4, ptr %6) #5
  call void @llvm.lifetime.end.p0(i64 8, ptr %5) #5
  call void @llvm.lifetime.end.p0(i64 8, ptr %4) #5
  %55 = load ptr, ptr %2, align 8
  ret ptr %55
}