; Function Attrs: nounwind uwtable
define ptr @ossl_x509_pubkey_hash(ptr noundef %0) local_unnamed_addr #1 {
  %2 = alloca ptr, align 8
  %3 = alloca i32, align 4
  %4 = alloca [64 x i8], align 16
  %5 = alloca i32, align 4
  %6 = alloca ptr, align 8
  %7 = alloca ptr, align 8
  call void @llvm.lifetime.start.p0(i64 8, ptr nonnull %2) #4
  call void @llvm.lifetime.start.p0(i64 4, ptr nonnull %3) #4
  call void @llvm.lifetime.start.p0(i64 64, ptr nonnull %4) #4
  call void @llvm.lifetime.start.p0(i64 4, ptr nonnull %5) #4
  call void @llvm.lifetime.start.p0(i64 8, ptr nonnull %6) #4
  call void @llvm.lifetime.start.p0(i64 8, ptr nonnull %7) #4
  %8 = icmp eq ptr %0, null
  br i1 %8, label %9, label %10

9:                                                ; preds = %1
  tail call void @ERR_new() #4
  tail call void @ERR_set_debug(ptr noundef nonnull @.str, i32 noundef 67, ptr noundef nonnull @__func__.ossl_x509_pubkey_hash) #4
  tail call void (i32, i32, ptr, ...) @ERR_set_error(i32 noundef 34, i32 noundef 114, ptr noundef null) #4
  br label %32

10:                                               ; preds = %1
  %11 = call i32 @ossl_x509_PUBKEY_get0_libctx(ptr noundef nonnull %7, ptr noundef nonnull %6, ptr noundef nonnull %0) #4
  %.not = icmp eq i32 %11, 0
  br i1 %.not, label %32, label %12

12:                                               ; preds = %10
  %13 = load ptr, ptr %7, align 8, !tbaa !24
  %14 = load ptr, ptr %6, align 8, !tbaa !26
  %15 = call ptr @EVP_MD_fetch(ptr noundef %13, ptr noundef nonnull @.str.1, ptr noundef %14) #4
  %16 = icmp eq ptr %15, null
  br i1 %16, label %32, label %17

17:                                               ; preds = %12
  %18 = call ptr @ASN1_OCTET_STRING_new() #4
  %19 = icmp eq ptr %18, null
  br i1 %19, label %20, label %21

20:                                               ; preds = %17
  call void @EVP_MD_free(ptr noundef nonnull %15) #4
  br label %32

21:                                               ; preds = %17
  %22 = call i32 @X509_PUBKEY_get0_param(ptr noundef null, ptr noundef nonnull %2, ptr noundef nonnull %3, ptr noundef null, ptr noundef nonnull %0) #4
  %23 = load ptr, ptr %2, align 8, !tbaa !26
  %24 = load i32, ptr %3, align 4, !tbaa !27
  %25 = sext i32 %24 to i64
  %26 = call i32 @EVP_Digest(ptr noundef %23, i64 noundef %25, ptr noundef nonnull %4, ptr noundef nonnull %5, ptr noundef nonnull %15, ptr noundef null) #4
  %.not14 = icmp eq i32 %26, 0
  br i1 %.not14, label %31, label %27

27:                                               ; preds = %21
  %28 = load i32, ptr %5, align 4, !tbaa !27
  %29 = call i32 @ASN1_OCTET_STRING_set(ptr noundef nonnull %18, ptr noundef nonnull %4, i32 noundef %28) #4
  %.not15 = icmp eq i32 %29, 0
  br i1 %.not15, label %31, label %30

30:                                               ; preds = %27
  call void @EVP_MD_free(ptr noundef nonnull %15) #4
  br label %32

31:                                               ; preds = %27, %21
  call void @EVP_MD_free(ptr noundef nonnull %15) #4
  call void @ASN1_OCTET_STRING_free(ptr noundef nonnull %18) #4
  br label %32

32:                                               ; preds = %12, %10, %31, %30, %20, %9
  %.0 = phi ptr [ null, %9 ], [ null, %20 ], [ %18, %30 ], [ null, %31 ], [ null, %10 ], [ null, %12 ]
  call void @llvm.lifetime.end.p0(i64 8, ptr nonnull %7) #4
  call void @llvm.lifetime.end.p0(i64 8, ptr nonnull %6) #4
  call void @llvm.lifetime.end.p0(i64 4, ptr nonnull %5) #4
  call void @llvm.lifetime.end.p0(i64 64, ptr nonnull %4) #4
  call void @llvm.lifetime.end.p0(i64 4, ptr nonnull %3) #4
  call void @llvm.lifetime.end.p0(i64 8, ptr nonnull %2) #4
  ret ptr %.0
}